(dp1
S'output'
p2
S'missing "pass" in view'
p3
sS'layer'
p4
S'ParserContainer'
p5
sS'code'
p6
S'response.write(\'<!DOCTYPE html PUBLIC "-//W3C//DTD XHTML 1.0 Strict//EN" "http://www.w3.org/TR/xhtml1/DTD/xhtml1-strict.dtd">\\r\\n\\r\\n<html xmlns="http://www.w3.org/1999/xhtml">\\r\\n<head>\\r\\n\\t<meta http-equiv="Content-Type" content="text/html; charset=utf-8" />\\r\\n\\t<title>Slug Classes</title>\\r\\n\\t<meta name="keywords" content="" />\\r\\n\\t<meta name="description" content="" />\\r\\n\\t\\r\\n\\t<link href="http://fonts.googleapis.com/css?family=Source+Sans+Pro:200,300,400,600,700,900" rel="stylesheet" />\\r\\n\\t<link href="\', escape=False)\nresponse.write(URL(\'static\', \'css/default.css\'))\nresponse.write(\'" rel="stylesheet" type="text/css" media="all" />\\r\\n\\t<link href="\', escape=False)\nresponse.write(URL(\'static\', \'fonts.css\'))\nresponse.write(\'" rel="stylesheet" type="text/css" media="all" />\\r\\n\\t<link rel="shortcut icon" href="\', escape=False)\nresponse.write(URL(\'static\',\'images/favicon.ico\'))\nresponse.write(\'" type="image/x-icon">\\r\\n\\t<link rel="apple-touch-icon" href="\', escape=False)\nresponse.write(URL(\'static\',\'images/favicon.png\'))\nresponse.write(\'">\\r\\n\\t\\r\\n\\t\\r\\n\\t<script src="\', escape=False)\nresponse.write(URL(\'static\',\'js/modernizr.custom.js\'))\nresponse.write(\'"></script>\\r\\n\\r\\n\\t<!--[if IE 6]><link href="default_ie6.css" rel="stylesheet" type="text/css" /><![endif]-->\\r\\n \\r\\n\\t<style>\\r\\n\\t\\t#insertedContent {\\tbackground-image: url("\', escape=False)\nresponse.write(URL(\'static\', \'images/background.jpg\'))\nresponse.write(\'"); \\r\\n\\t\\t\\t\\t\\t\\t\\tbackground-size: 100% 100%;}\\r\\n\\t</style>\\r\\n</head>\\r\\n\\r\\n\\r\\n<body>\\r\\n<div id="header-wrapper">\\r\\n\\t<div id="header" class="container">\\r\\n\\t\\t<div id="logo">\\r\\n\\t\\t\\t<img class="slug" style="-webkit-filter: invert(100%);" src="\', escape=False)\nresponse.write(URL(\'static\', \'images/slug.png\'))\nresponse.write(\'" alt="slug" height="41" width="128">\\r\\n\\t\\t\\t<h1><a href="\', escape=False)\nresponse.write(URL(\'default\', \'index\'))\nresponse.write(\'">Slug Classes</a></h1>\\r\\n\\t\\t\\t<span>University of California, Santa Cruz</span>\\r\\n\\t\\t</div>\\r\\n\\t\\t<div id="triangle-up"></div>\\r\\n\\t</div>\\r\\n</div>\\r\\n<div id="menu-wrapper">\\r\\n\\t\\t<div id="menu">\\r\\n\\t\\t\\t<ul >\\r\\n\\t\\t\\t\\t<li class="current_page_item, toyellow"><a href="\', escape=False)\nresponse.write(URL(\'default\', \'index\'))\nresponse.write(\'" accesskey="1" title="">Home</a></li>\\r\\n\\t\\t\\t\\t<li class="toyellow"><a href="\', escape=False)\nresponse.write(URL(\'default\', \'classes\'))\nresponse.write(\'" accesskey="2" title="">Classes</a></li>\\r\\n\\t\\t\\t\\t<li class="toyellow"><a href="\', escape=False)\nresponse.write(URL(\'default\', \'professors\'))\nresponse.write(\'" accesskey="3" title="">Professors</a></li>\\r\\n\\t\\t\\t\\t<li class="toyellow"><a href="\', escape=False)\nresponse.write(URL(\'default\', \'user/profile\'))\nresponse.write(\'" accesskey="4" title="">My Slug</a></li>\\r\\n\\t\\t\\t\\t<li class="toyellow"><a href="\', escape=False)\nresponse.write(URL(\'default\', \'contact\'))\nresponse.write(\'" accesskey="7" title="">Contact Us</a></li>\\r\\n\\t\\t\\t</ul>\\r\\n\\t\\t</div>\\r\\n</div>\\r\\n<div id="white">\\r\\n\\t<div id="insertedContent">\\r\\n\\t\\t\', escape=False)\nresponse.write(\' \\r\\n\\t\\t\', escape=False)\nresponse.write(\'\\r\\n\\r\\n<head>\\r\\n\\t<style>\\r\\n\\t\\t.subjects {\\t\\t\\tfont-size: 20px; text-decoration:none; font-weight:bolder; color:black;}\\r\\n\\t\\t.subjects:hover {\\tcolor: #3300FF}\\r\\n\\t\\t.header { \\t\\t\\tfont-size:40px; text-align:center; padding-top:20px;}\\r\\n\\t\\t.search {\\t\\t\\tpadding-top: 15px; padding-bottom: 40px;}\\r\\n\\t\\t.btn {\\t\\t\\t\\ttext-decoration: none; font-weight: bolder;x}\\r\\n\\t\\t.grad {\\t\\t\\t\\t\\r\\n\\t\\t\\t\\t\\t\\t\\tbackground: radial-gradient(rgba(255,226,137,.3), rgba(255,216,98,0.0));}\\r\\n\\t\\ttr.border_bottom td{border-bottom: 1pt solid #ffc000;}\\r\\n\\r\\n\\t</style>\\r\\n</head>\\r\\n\\r\\n<div id="wrapper">\\r\\n\\t<div id="indented" style="padding-bottom: 20px; padding-left:20%; padding-right:20%;">\\r\\n\\t\\r\\n\\t\\t<h1 class="header">\', escape=False)\nresponse.write(request.vars.s.upper() + \' \' + request.vars.n)\nresponse.write(\'<br /><br /></h1>\\r\\n\\r\\n\\t\\t\', escape=False)\nif len(form) > 0:\n    response.write(\'\\r\\n\\t\\t\\r\\n\\t\\t\\t<table width="100%" class="grad">\\r\\n\\t\\t\\t\\t<h2 align="center" style="color:gray"> What people are saying about this class: </h2>\\r\\n\\t\\t\\t\\t\', escape=False)\n    for r in form:\n        response.write(\'\\r\\n\\t\\t\\t\\t<tr class="border_bottom">\\r\\n\\t\\t\\t\\t\\t\', escape=False)\n        clss = db(db.course.id == r.course_id).select().first()\n        if clss == None:\n            clss.acronym = \'\'\n            clss.nbr = \'\'\n            response.write(\'\\r\\n\\t\\t\\t\\t\\t<td width="40%"  style="padding-top:10px; padding-bottom:10px;">\\r\\n\\t\\t\\t\\t\\t\\t<div><span style="color:gray">Professor: &nbsp&nbsp&nbsp&nbsp&nbsp&nbsp&nbsp&nbsp&nbsp&nbsp&nbsp&nbsp&nbsp</span> <span style-"font-weight:bold">\', escape=False)\n            response.write(clss.acronym.upper() +\' \'+clss.nbr)\n            response.write(\'</span></div>\\r\\n\\t\\t\\t\\t\\t\\t<div><span style="color:gray">Reviwed by: &nbsp&nbsp&nbsp&nbsp&nbsp&nbsp&nbsp&nbsp&nbsp&nbsp</span><span style="font-weight:bold">\', escape=False)\n            response.write(r.author)\n            response.write(\'</span></div>\\r\\n\\t\\t\\t\\t\\t\\t<div><span style="color:gray">Date Reviewed: &nbsp&nbsp&nbsp</span><span>\', escape=False)\n            response.write(r.date_created)\n            response.write(\'</span></div>\\r\\n\\t\\t\\t\\t\\t</td>\\r\\n\\t\\t\\t\\t\\t<td width="60%"  style="padding-top:10px; padding-bottom:10px;">\\r\\n\\t\\t\\t\\t\\t\\t<div><span style="font-weight:bold;">\', escape=False)\n            response.write(r.summary)\n            response.write(\'</span></div>\\r\\n\\t\\t\\t\\t\\t\\t<div class=span12>\', escape=False)\n            response.write(r.body)\n            response.write(\'</div>\\r\\n\\t\\t\\t\\t\\t</td>\\r\\n\\t\\t\\t\\t</tr>\\r\\n\\t\\t\\t\\t\', escape=False)\n            pass\n        response.write(\'\\r\\n\\t\\t\\t</table>\\r\\n\\t\\t\\r\\n\\t\\t\', escape=False)\n    else:\n        response.write(\'\\r\\n\\t\\t<p> There are no reviews to show. </p>\\r\\n\\t\\t\', escape=False)\n        pass\n    response.write(\'\\r\\n\\t\\t\\r\\n<p>\\r\\n\', escape=False)\n    b = \'Return to \' + request.vars.s\n    response.write(\'\\r\\n\', escape=False)\n    response.write(A(b, _class=\'btn\', _href=URL(\'default\', \'subject\', args=[request.vars.s])))\n    response.write(\'\\r\\n</p>\\r\\n\\t</div>\\r\\n</div>\\r\\n\\r\\n\\r\\n\\r\\n\', escape=False)\n    response.write(\' \\r\\n\\t\\t\', escape=False)\n    response.write(\'\\r\\n\\t</div>\\r\\n</div>\\r\\n\\r\\n<div id="stamp" class="container">\\r\\n\\t<div class="hexagon"><span class="icon icon-wrench"></span></div>\\r\\n</div>\\r\\n\\r\\n<div id="copyright" class="container">\\r\\n\\t<p>&copy; Slug Classes 2015. All rights reserved. | Robin Singh Kalpana Chinnappan | Design by <a href="http://web2py.com/layouts" target="_blank">TEMPLATED</a>.</p>\\r\\n</div>\\r\\n\\r\\n</body>\\r\\n</html>\\r\\n\', escape=False)'
p7
sS'snapshot'
p8
(dp9
S'exception'
p10
(dp11
S'__module__'
p12
S"'gluon.rocket'"
p13
sS'__getslice__'
p14
S"<method-wrapper '__getslice__' of SocketTimeout object>"
p15
sS'__str__'
p16
S"<method-wrapper '__str__' of SocketTimeout object>"
p17
sS'__reduce__'
p18
S'<built-in method __reduce__ of SocketTimeout object>'
p19
sS'__dict__'
p20
S'{}'
p21
sS'__sizeof__'
p22
S'<built-in method __sizeof__ of SocketTimeout object>'
p23
sS'__weakref__'
p24
S'None'
p25
sS'__init__'
p26
S"<method-wrapper '__init__' of SocketTimeout object>"
p27
sS'__setattr__'
p28
S"<method-wrapper '__setattr__' of SocketTimeout object>"
p29
sS'__reduce_ex__'
p30
S'<built-in method __reduce_ex__ of SocketTimeout object>'
p31
sS'__new__'
p32
S'<built-in method __new__ of type object>'
p33
sS'__format__'
p34
S'<built-in method __format__ of SocketTimeout object>'
p35
sS'__class__'
p36
S"<class 'gluon.rocket.SocketTimeout'>"
p37
sS'__doc__'
p38
S"'Exception for when a socket times out between requests.'"
p39
sS'__getitem__'
p40
S"<method-wrapper '__getitem__' of SocketTimeout object>"
p41
sS'__setstate__'
p42
S'<built-in method __setstate__ of SocketTimeout object>'
p43
sS'__getattribute__'
p44
S"<method-wrapper '__getattribute__' of SocketTimeout object>"
p45
sS'args'
p46
S"('Socket timed out before request.',)"
p47
sS'__subclasshook__'
p48
S'<built-in method __subclasshook__ of type object>'
p49
sS'__unicode__'
p50
S'<built-in method __unicode__ of SocketTimeout object>'
p51
sS'__delattr__'
p52
S"<method-wrapper '__delattr__' of SocketTimeout object>"
p53
sS'__repr__'
p54
S"<method-wrapper '__repr__' of SocketTimeout object>"
p55
sS'__hash__'
p56
S"<method-wrapper '__hash__' of SocketTimeout object>"
p57
ssS'evalue'
p58
S'Socket timed out before request.'
p59
sS'frames'
p60
(lp61
(dp62
S'file'
p63
S'C:\\Users\\Robin\\Desktop\\etc\\web2py\\gluon\\rocket.py'
p64
sS'dump'
p65
(dp66
sS'lnum'
p67
I1337
sS'lines'
p68
(dp69
sS'call'
p70
S'(self=<WSGIWorker(Thread-11, started daemon 3416)>)'
p71
sS'func'
p72
S'run'
p73
sa(dp74
g63
S'C:\\Users\\Robin\\Desktop\\etc\\web2py\\gluon\\rocket.py'
p75
sg65
(dp76
sg67
I1830
sg68
(dp77
sg70
S'(self=<WSGIWorker(Thread-11, started daemon 3416)>, conn=<gluon.rocket.Connection object>)'
p78
sg72
S'run_app'
p79
sa(dp80
g63
S'C:\\Users\\Robin\\Desktop\\etc\\web2py\\gluon\\rocket.py'
p81
sg65
(dp82
sg67
I1650
sg68
(dp83
sg70
S'(self=<WSGIWorker(Thread-11, started daemon 3416)>, sock_file=<socket._fileobject object>, conn=<gluon.rocket.Connection object>)'
p84
sg72
S'build_environ'
p85
sa(dp86
g63
S'C:\\Users\\Robin\\Desktop\\etc\\web2py\\gluon\\rocket.py'
p87
sg65
(dp88
sg67
I1401
sg68
(dp89
sg70
S'(self=<WSGIWorker(Thread-11, started daemon 3416)>, sock_file=<socket._fileobject object>)'
p90
sg72
S'read_request_line'
p91
sasS'pyver'
p92
S'Python 2.7.6: C:\\Users\\Robin\\Desktop\\etc\\web2py\\web2py.exe (prefix: C:\\Users\\Robin\\Anaconda)'
p93
sS'etype'
p94
S"<class 'gluon.rocket.SocketTimeout'>"
p95
sS'date'
p96
S'Mon Mar 16 02:26:26 2015'
p97
sS'locals'
p98
(dp99
S'sock_file'
p100
S'<socket._fileobject object>'
p101
sS'self'
p102
S'<WSGIWorker(Thread-11, started daemon 3416)>'
p103
sssS'traceback'
p104
S'Traceback (most recent call last):\n  File "gluon/rocket.py", line 1337, in run\n  File "gluon/rocket.py", line 1830, in run_app\n  File "gluon/rocket.py", line 1650, in build_environ\n  File "gluon/rocket.py", line 1401, in read_request_line\nSocketTimeout: Socket timed out before request.\n'
p105
s.